; Function Attrs: mustprogress uwtable
define hidden void @_ZN17substitution_tree11clear_stackEv(ptr noundef nonnull readonly align 8 captures(none) dereferenceable(136) %0) local_unnamed_addr #5 align 2 {
  %2 = getelementptr inbounds nuw i8, ptr %0, i64 104
  %3 = load ptr, ptr %2, align 8, !tbaa !96
  %4 = icmp eq ptr %3, null
  br i1 %4, label %_ZNK6vectorIPN17substitution_tree4nodeELb0EjE5emptyEv.exit.thread, label %_ZNK6vectorIPN17substitution_tree4nodeELb0EjE5emptyEv.exit.lr.ph

_ZNK6vectorIPN17substitution_tree4nodeELb0EjE5emptyEv.exit.lr.ph: ; preds = %1
  %5 = getelementptr inbounds nuw i8, ptr %0, i64 96
  %.phi.trans.insert = getelementptr inbounds i8, ptr %3, i64 -4
  %.pre = load i32, ptr %.phi.trans.insert, align 4, !tbaa !33
  %6 = icmp eq i32 %.pre, 0
  br i1 %6, label %_ZNK6vectorIPN17substitution_tree4nodeELb0EjE5emptyEv.exit.thread, label %_ZNK6vectorIPN17substitution_tree4nodeELb0EjE5emptyEv.exit

_ZNK6vectorIPN17substitution_tree4nodeELb0EjE5emptyEv.exit: ; preds = %_ZNK6vectorIPN17substitution_tree4nodeELb0EjE5emptyEv.exit.lr.ph, %_ZNK6vectorIPN17substitution_tree4nodeELb0EjE5emptyEv.exit
  %7 = load ptr, ptr %5, align 8, !tbaa !131
  tail call void @_ZN12substitution9pop_scopeEj(ptr noundef nonnull align 8 dereferenceable(124) %7, i32 noundef 1)
  %8 = load ptr, ptr %2, align 8, !tbaa !96
  %9 = getelementptr inbounds i8, ptr %8, i64 -4
  %10 = load i32, ptr %9, align 4, !tbaa !33
  %11 = add i32 %10, -1
  store i32 %11, ptr %9, align 4, !tbaa !33
  %12 = icmp eq i32 %11, 0
  br i1 %12, label %_ZNK6vectorIPN17substitution_tree4nodeELb0EjE5emptyEv.exit.thread, label %_ZNK6vectorIPN17substitution_tree4nodeELb0EjE5emptyEv.exit, !llvm.loop !132

_ZNK6vectorIPN17substitution_tree4nodeELb0EjE5emptyEv.exit.thread: ; preds = %_ZNK6vectorIPN17substitution_tree4nodeELb0EjE5emptyEv.exit, %_ZNK6vectorIPN17substitution_tree4nodeELb0EjE5emptyEv.exit.lr.ph, %1
  %13 = getelementptr inbounds nuw i8, ptr %0, i64 96
  %14 = load ptr, ptr %13, align 8, !tbaa !131
  tail call void @_ZN12substitution9pop_scopeEj(ptr noundef nonnull align 8 dereferenceable(124) %14, i32 noundef 1)
  ret void
}